target datalayout = "e-m:e-p270:32:32-p271:32:32-p272:64:64-i64:64-i128:128-f80:128-n8:16:32:64-S128"
target triple = "x86_64-pc-linux-gnu"

@plugin_type = external constant [0 x i8], align 1
@.str.47 = private unnamed_addr constant [34 x i8] c"%s: %s: mpi/pmi2: in _handle_ring\00", align 1
@__func__._handle_ring = private unnamed_addr constant [13 x i8] c"_handle_ring\00", align 1
@.str.48 = private unnamed_addr constant [11 x i8] c"ring-count\00", align 1
@.str.49 = private unnamed_addr constant [10 x i8] c"ring-left\00", align 1
@.str.50 = private unnamed_addr constant [11 x i8] c"ring-right\00", align 1
@.str.51 = private unnamed_addr constant [35 x i8] c"%s: %s: mpi/pmi2: out _handle_ring\00", align 1

; Function Attrs: nounwind uwtable
define internal i32 @_handle_ring(i32 noundef %0, i32 noundef %1, ptr noundef %2) #0 {
  %4 = alloca i32, align 4
  %5 = alloca i32, align 4
  %6 = alloca ptr, align 8
  %7 = alloca i32, align 4
  %8 = alloca i32, align 4
  %9 = alloca ptr, align 8
  %10 = alloca ptr, align 8
  %11 = alloca i32, align 4
  store i32 %0, ptr %4, align 4
  store i32 %1, ptr %5, align 4
  store ptr %2, ptr %6, align 8
  call void @llvm.lifetime.start.p0(i64 4, ptr %7) #6
  store i32 0, ptr %7, align 4
  call void @llvm.lifetime.start.p0(i64 4, ptr %8) #6
  store i32 0, ptr %8, align 4
  call void @llvm.lifetime.start.p0(i64 8, ptr %9) #6
  store ptr null, ptr %9, align 8
  call void @llvm.lifetime.start.p0(i64 8, ptr %10) #6
  store ptr null, ptr %10, align 8
  br label %12

12:                                               ; preds = %3
  br label %13

13:                                               ; preds = %12
  %14 = call i32 @slurm_get_log_level()
  %15 = icmp sge i32 %14, 7
  br i1 %15, label %16, label %17

16:                                               ; preds = %13
  call void (i32, ptr, ...) @slurm_log_var(i32 noundef 7, ptr noundef @.str.47, ptr noundef @plugin_type, ptr noundef @__func__._handle_ring)
  br label %17

17:                                               ; preds = %16, %13
  br label %18

18:                                               ; preds = %17
  br label %19

19:                                               ; preds = %18
  br label %20

20:                                               ; preds = %19
  br label %21

21:                                               ; preds = %20
  %22 = load ptr, ptr %6, align 8
  %23 = call i32 @client_req_parse_body(ptr noundef %22)
  %24 = load ptr, ptr %6, align 8
  %25 = call zeroext i1 @client_req_get_int(ptr noundef %24, ptr noundef @.str.48, ptr noundef %8)
  %26 = load ptr, ptr %6, align 8
  %27 = call zeroext i1 @client_req_get_str(ptr noundef %26, ptr noundef @.str.49, ptr noundef %9)
  %28 = load ptr, ptr %6, align 8
  %29 = call zeroext i1 @client_req_get_str(ptr noundef %28, ptr noundef @.str.50, ptr noundef %10)
  call void @llvm.lifetime.start.p0(i64 4, ptr %11) #6
  %30 = load i32, ptr %5, align 4
  store i32 %30, ptr %11, align 4
  %31 = load i32, ptr %11, align 4
  %32 = load i32, ptr %8, align 4
  %33 = load ptr, ptr %9, align 8
  %34 = load ptr, ptr %10, align 8
  %35 = call i32 @pmix_ring_in(i32 noundef %31, i32 noundef %32, ptr noundef %33, ptr noundef %34)
  store i32 %35, ptr %7, align 4
  call void @slurm_xfree(ptr noundef %9)
  call void @slurm_xfree(ptr noundef %10)
  br label %36

36:                                               ; preds = %21
  br label %37

37:                                               ; preds = %36
  %38 = call i32 @slurm_get_log_level()
  %39 = icmp sge i32 %38, 7
  br i1 %39, label %40, label %41

40:                                               ; preds = %37
  call void (i32, ptr, ...) @slurm_log_var(i32 noundef 7, ptr noundef @.str.51, ptr noundef @plugin_type, ptr noundef @__func__._handle_ring)
  br label %41

41:                                               ; preds = %40, %37
  br label %42

42:                                               ; preds = %41
  br label %43

43:                                               ; preds = %42
  br label %44

44:                                               ; preds = %43
  br label %45

45:                                               ; preds = %44
  %46 = load i32, ptr %7, align 4
  call void @llvm.lifetime.end.p0(i64 4, ptr %11) #6
  call void @llvm.lifetime.end.p0(i64 8, ptr %10) #6
  call void @llvm.lifetime.end.p0(i64 8, ptr %9) #6
  call void @llvm.lifetime.end.p0(i64 4, ptr %8) #6
  call void @llvm.lifetime.end.p0(i64 4, ptr %7) #6
  ret i32 %46
}