; Function Attrs: nounwind uwtable
define internal i32 @_handle_ring(i32 %0, i32 noundef %1, ptr noundef %2) #0 {
  %4 = alloca i32, align 4
  %5 = alloca ptr, align 8
  %6 = alloca ptr, align 8
  call void @llvm.lifetime.start.p0(i64 4, ptr nonnull %4) #7
  store i32 0, ptr %4, align 4
  call void @llvm.lifetime.start.p0(i64 8, ptr nonnull %5) #7
  store ptr null, ptr %5, align 8
  call void @llvm.lifetime.start.p0(i64 8, ptr nonnull %6) #7
  store ptr null, ptr %6, align 8
  %7 = tail call i32 @slurm_get_log_level() #7
  %8 = icmp sgt i32 %7, 6
  br i1 %8, label %9, label %10

9:                                                ; preds = %3
  tail call void (i32, ptr, ...) @slurm_log_var(i32 noundef 7, ptr noundef nonnull @.str.47, ptr noundef nonnull @plugin_type, ptr noundef nonnull @__func__._handle_ring) #7
  br label %10

10:                                               ; preds = %9, %3
  %11 = tail call i32 @client_req_parse_body(ptr noundef %2) #7
  %12 = call zeroext i1 @client_req_get_int(ptr noundef %2, ptr noundef nonnull @.str.48, ptr noundef nonnull %4) #7
  %13 = call zeroext i1 @client_req_get_str(ptr noundef %2, ptr noundef nonnull @.str.49, ptr noundef nonnull %5) #7
  %14 = call zeroext i1 @client_req_get_str(ptr noundef %2, ptr noundef nonnull @.str.50, ptr noundef nonnull %6) #7
  %15 = load i32, ptr %4, align 4
  %16 = load ptr, ptr %5, align 8
  %17 = load ptr, ptr %6, align 8
  %18 = call i32 @pmix_ring_in(i32 noundef %1, i32 noundef %15, ptr noundef %16, ptr noundef %17) #7
  call void @slurm_xfree(ptr noundef nonnull %5) #7
  call void @slurm_xfree(ptr noundef nonnull %6) #7
  %19 = call i32 @slurm_get_log_level() #7
  %20 = icmp sgt i32 %19, 6
  br i1 %20, label %21, label %22

21:                                               ; preds = %10
  call void (i32, ptr, ...) @slurm_log_var(i32 noundef 7, ptr noundef nonnull @.str.51, ptr noundef nonnull @plugin_type, ptr noundef nonnull @__func__._handle_ring) #7
  br label %22

22:                                               ; preds = %21, %10
  call void @llvm.lifetime.end.p0(i64 8, ptr nonnull %6) #7
  call void @llvm.lifetime.end.p0(i64 8, ptr nonnull %5) #7
  call void @llvm.lifetime.end.p0(i64 4, ptr nonnull %4) #7
  ret i32 %18
}